; Function Attrs: nounwind uwtable
define ptr @l_Lean_PersistentHashMap_insert___at___private_Lean_Meta_Tactic_Grind_Internalize_0__Lean_Meta_Grind_addSplitCandidatesForExt_found___spec__5(ptr noundef %0, ptr noundef %1, ptr noundef %2) local_unnamed_addr #1 {
  %4 = getelementptr inbounds nuw i8, ptr %1, i64 8
  %5 = load ptr, ptr %4, align 8, !tbaa !9
  %6 = ptrtoint ptr %5 to i64
  %7 = and i64 %6, 1
  %.not = icmp eq i64 %7, 0
  br i1 %.not, label %8, label %lean_inc.exit16

8:                                                ; preds = %3
  %.val.i = load i32, ptr %5, align 4, !tbaa !4
  %9 = icmp sgt i32 %.val.i, 0
  br i1 %9, label %10, label %12, !prof !11

10:                                               ; preds = %8
  %11 = add nuw i32 %.val.i, 1
  store i32 %11, ptr %5, align 4, !tbaa !4
  br label %lean_inc.exit16

12:                                               ; preds = %8
  %.not.i20 = icmp eq i32 %.val.i, 0
  br i1 %.not.i20, label %lean_inc.exit16, label %13

13:                                               ; preds = %12
  tail call void @lean_inc_ref_cold(ptr noundef nonnull %5) #4
  br label %lean_inc.exit16

lean_inc.exit16:                                  ; preds = %13, %12, %10, %3
  %14 = getelementptr inbounds nuw i8, ptr %1, i64 16
  %15 = load ptr, ptr %14, align 8, !tbaa !9
  %16 = ptrtoint ptr %15 to i64
  %17 = and i64 %16, 1
  %.not25 = icmp eq i64 %17, 0
  br i1 %.not25, label %18, label %lean_inc.exit

18:                                               ; preds = %lean_inc.exit16
  %.val.i21 = load i32, ptr %15, align 4, !tbaa !4
  %19 = icmp sgt i32 %.val.i21, 0
  br i1 %19, label %20, label %22, !prof !11

20:                                               ; preds = %18
  %21 = add nuw i32 %.val.i21, 1
  store i32 %21, ptr %15, align 4, !tbaa !4
  br label %lean_inc.exit

22:                                               ; preds = %18
  %.not.i22 = icmp eq i32 %.val.i21, 0
  br i1 %.not.i22, label %lean_inc.exit, label %23

23:                                               ; preds = %22
  tail call void @lean_inc_ref_cold(ptr noundef nonnull %15) #4
  br label %lean_inc.exit

lean_inc.exit:                                    ; preds = %23, %22, %20, %lean_inc.exit16
  %24 = tail call i64 @l_Lean_Expr_hash(ptr noundef %5) #4
  br i1 %.not, label %25, label %lean_dec.exit17

25:                                               ; preds = %lean_inc.exit
  %26 = load i32, ptr %5, align 4, !tbaa !4
  %27 = icmp sgt i32 %26, 1
  br i1 %27, label %28, label %30, !prof !11

28:                                               ; preds = %25
  %29 = add nsw i32 %26, -1
  store i32 %29, ptr %5, align 4, !tbaa !4
  br label %lean_dec.exit17

30:                                               ; preds = %25
  %.not.i = icmp eq i32 %26, 0
  br i1 %.not.i, label %lean_dec.exit17, label %31

31:                                               ; preds = %30
  tail call void @lean_dec_ref_cold(ptr noundef nonnull %5) #4
  br label %lean_dec.exit17

lean_dec.exit17:                                  ; preds = %31, %30, %28, %lean_inc.exit
  br i1 %.not25, label %33, label %lean_uint64_of_nat.exit.thread

lean_uint64_of_nat.exit.thread:                   ; preds = %lean_dec.exit17
  %32 = lshr i64 %16, 1
  br label %lean_dec.exit

33:                                               ; preds = %lean_dec.exit17
  %34 = tail call i64 @lean_uint64_of_big_nat(ptr noundef %15) #4
  %35 = load i32, ptr %15, align 4, !tbaa !4
  %36 = icmp sgt i32 %35, 1
  br i1 %36, label %37, label %39, !prof !11

37:                                               ; preds = %33
  %38 = add nsw i32 %35, -1
  store i32 %38, ptr %15, align 4, !tbaa !4
  br label %lean_dec.exit

39:                                               ; preds = %33
  %.not.i18 = icmp eq i32 %35, 0
  br i1 %.not.i18, label %lean_dec.exit, label %40

40:                                               ; preds = %39
  tail call void @lean_dec_ref_cold(ptr noundef nonnull %15) #4
  br label %lean_dec.exit

lean_dec.exit:                                    ; preds = %40, %39, %37, %lean_uint64_of_nat.exit.thread
  %41 = phi i64 [ %32, %lean_uint64_of_nat.exit.thread ], [ %34, %37 ], [ %34, %39 ], [ %34, %40 ]
  %42 = tail call i64 @lean_uint64_mix_hash(i64 noundef %24, i64 noundef %41) #4
  %43 = tail call ptr @l_Lean_PersistentHashMap_insertAux___at___private_Lean_Meta_Tactic_Grind_Internalize_0__Lean_Meta_Grind_addSplitCandidatesForExt_found___spec__6(ptr noundef %0, i64 noundef %42, i64 noundef 1, ptr noundef nonnull %1, ptr noundef %2)
  ret ptr %43
}